target datalayout = "e-m:e-p270:32:32-p271:32:32-p272:64:64-i64:64-i128:128-f80:128-n8:16:32:64-S128"
target triple = "x86_64-pc-linux-gnu"

%struct.prte_iof_base_module_2_0_0_t = type { ptr, ptr, ptr, ptr, ptr, ptr, ptr }
%struct.prte_iof_base_io_conf_t = type { i32, i8, [2 x i32], [2 x i32], [2 x i32] }

@.str.1 = private unnamed_addr constant [22 x i8] c"base/iof_base_setup.c\00", align 1
@prte_iof = external global %struct.prte_iof_base_module_2_0_0_t, align 8
@.str.3 = private unnamed_addr constant [37 x i8] c"PRTE ERROR: %s in file %s at line %d\00", align 1

; Function Attrs: nounwind uwtable
define i32 @prte_iof_base_setup_parent(ptr noundef %0, ptr noundef %1) #0 {
  %3 = alloca i32, align 4
  %4 = alloca ptr, align 8
  %5 = alloca ptr, align 8
  %6 = alloca i32, align 4
  %7 = alloca i32, align 4
  store ptr %0, ptr %4, align 8, !tbaa !26
  store ptr %1, ptr %5, align 8, !tbaa !3
  call void @llvm.lifetime.start.p0(i64 4, ptr %6) #4
  %8 = load ptr, ptr %5, align 8, !tbaa !3
  %9 = getelementptr inbounds nuw %struct.prte_iof_base_io_conf_t, ptr %8, i32 0, i32 1
  %10 = load i8, ptr %9, align 4, !tbaa !17, !range !18, !noundef !19
  %11 = trunc i8 %10 to i1
  br i1 %11, label %12, label %34

12:                                               ; preds = %2
  %13 = load ptr, ptr getelementptr inbounds nuw (%struct.prte_iof_base_module_2_0_0_t, ptr @prte_iof, i32 0, i32 2), align 8, !tbaa !28
  %14 = load ptr, ptr %4, align 8, !tbaa !26
  %15 = load ptr, ptr %5, align 8, !tbaa !3
  %16 = getelementptr inbounds nuw %struct.prte_iof_base_io_conf_t, ptr %15, i32 0, i32 2
  %17 = getelementptr inbounds [2 x i32], ptr %16, i64 0, i64 1
  %18 = load i32, ptr %17, align 4, !tbaa !8
  %19 = call i32 %13(ptr noundef %14, i16 noundef zeroext 1, i32 noundef %18)
  store i32 %19, ptr %6, align 4, !tbaa !8
  %20 = load i32, ptr %6, align 4, !tbaa !8
  %21 = icmp ne i32 0, %20
  br i1 %21, label %22, label %33

22:                                               ; preds = %12
  br label %23

23:                                               ; preds = %22
  %24 = load i32, ptr %6, align 4, !tbaa !8
  %25 = icmp ne i32 -43, %24
  br i1 %25, label %26, label %29

26:                                               ; preds = %23
  %27 = load i32, ptr %6, align 4, !tbaa !8
  %28 = call ptr @prte_strerror(i32 noundef %27)
  call void (i32, ptr, ...) @pmix_output(i32 noundef 0, ptr noundef @.str.3, ptr noundef %28, ptr noundef @.str.1, i32 noundef 239)
  br label %29

29:                                               ; preds = %26, %23
  br label %30

30:                                               ; preds = %29
  br label %31

31:                                               ; preds = %30
  %32 = load i32, ptr %6, align 4, !tbaa !8
  store i32 %32, ptr %3, align 4
  store i32 1, ptr %7, align 4
  br label %77

33:                                               ; preds = %12
  br label %34

34:                                               ; preds = %33, %2
  %35 = load ptr, ptr getelementptr inbounds nuw (%struct.prte_iof_base_module_2_0_0_t, ptr @prte_iof, i32 0, i32 1), align 8, !tbaa !30
  %36 = load ptr, ptr %4, align 8, !tbaa !26
  %37 = load ptr, ptr %5, align 8, !tbaa !3
  %38 = getelementptr inbounds nuw %struct.prte_iof_base_io_conf_t, ptr %37, i32 0, i32 3
  %39 = getelementptr inbounds [2 x i32], ptr %38, i64 0, i64 0
  %40 = load i32, ptr %39, align 4, !tbaa !8
  %41 = call i32 %35(ptr noundef %36, i16 noundef zeroext 2, i32 noundef %40)
  store i32 %41, ptr %6, align 4, !tbaa !8
  %42 = load i32, ptr %6, align 4, !tbaa !8
  %43 = icmp ne i32 0, %42
  br i1 %43, label %44, label %55

44:                                               ; preds = %34
  br label %45

45:                                               ; preds = %44
  %46 = load i32, ptr %6, align 4, !tbaa !8
  %47 = icmp ne i32 -43, %46
  br i1 %47, label %48, label %51

48:                                               ; preds = %45
  %49 = load i32, ptr %6, align 4, !tbaa !8
  %50 = call ptr @prte_strerror(i32 noundef %49)
  call void (i32, ptr, ...) @pmix_output(i32 noundef 0, ptr noundef @.str.3, ptr noundef %50, ptr noundef @.str.1, i32 noundef 247)
  br label %51

51:                                               ; preds = %48, %45
  br label %52

52:                                               ; preds = %51
  br label %53

53:                                               ; preds = %52
  %54 = load i32, ptr %6, align 4, !tbaa !8
  store i32 %54, ptr %3, align 4
  store i32 1, ptr %7, align 4
  br label %77

55:                                               ; preds = %34
  %56 = load ptr, ptr getelementptr inbounds nuw (%struct.prte_iof_base_module_2_0_0_t, ptr @prte_iof, i32 0, i32 1), align 8, !tbaa !30
  %57 = load ptr, ptr %4, align 8, !tbaa !26
  %58 = load ptr, ptr %5, align 8, !tbaa !3
  %59 = getelementptr inbounds nuw %struct.prte_iof_base_io_conf_t, ptr %58, i32 0, i32 4
  %60 = getelementptr inbounds [2 x i32], ptr %59, i64 0, i64 0
  %61 = load i32, ptr %60, align 4, !tbaa !8
  %62 = call i32 %56(ptr noundef %57, i16 noundef zeroext 4, i32 noundef %61)
  store i32 %62, ptr %6, align 4, !tbaa !8
  %63 = load i32, ptr %6, align 4, !tbaa !8
  %64 = icmp ne i32 0, %63
  br i1 %64, label %65, label %76

65:                                               ; preds = %55
  br label %66

66:                                               ; preds = %65
  %67 = load i32, ptr %6, align 4, !tbaa !8
  %68 = icmp ne i32 -43, %67
  br i1 %68, label %69, label %72

69:                                               ; preds = %66
  %70 = load i32, ptr %6, align 4, !tbaa !8
  %71 = call ptr @prte_strerror(i32 noundef %70)
  call void (i32, ptr, ...) @pmix_output(i32 noundef 0, ptr noundef @.str.3, ptr noundef %71, ptr noundef @.str.1, i32 noundef 253)
  br label %72

72:                                               ; preds = %69, %66
  br label %73

73:                                               ; preds = %72
  br label %74

74:                                               ; preds = %73
  %75 = load i32, ptr %6, align 4, !tbaa !8
  store i32 %75, ptr %3, align 4
  store i32 1, ptr %7, align 4
  br label %77

76:                                               ; preds = %55
  store i32 0, ptr %3, align 4
  store i32 1, ptr %7, align 4
  br label %77

77:                                               ; preds = %76, %74, %53, %31
  call void @llvm.lifetime.end.p0(i64 4, ptr %6) #4
  %78 = load i32, ptr %3, align 4
  ret i32 %78
}