; Function Attrs: nounwind uwtable
define noundef i32 @prte_iof_base_setup_parent(ptr noundef %0, ptr noundef readonly captures(none) %1) local_unnamed_addr #0 {
  %3 = getelementptr inbounds nuw i8, ptr %1, i64 4
  %4 = load i8, ptr %3, align 4, !tbaa !12, !range !13, !noundef !14
  %5 = trunc nuw i8 %4 to i1
  br i1 %5, label %6, label %11

6:                                                ; preds = %2
  %7 = load ptr, ptr getelementptr inbounds nuw (i8, ptr @prte_iof, i64 16), align 8, !tbaa !20
  %8 = getelementptr inbounds nuw i8, ptr %1, i64 12
  %9 = load i32, ptr %8, align 4, !tbaa !15
  %10 = tail call i32 %7(ptr noundef %0, i16 noundef zeroext 1, i32 noundef %9) #6
  switch i32 %10, label %.sink.split [
    i32 0, label %11
    i32 -43, label %22
  ]

11:                                               ; preds = %6, %2
  %12 = load ptr, ptr getelementptr inbounds nuw (i8, ptr @prte_iof, i64 8), align 8, !tbaa !22
  %13 = getelementptr inbounds nuw i8, ptr %1, i64 16
  %14 = load i32, ptr %13, align 4, !tbaa !15
  %15 = tail call i32 %12(ptr noundef %0, i16 noundef zeroext 2, i32 noundef %14) #6
  switch i32 %15, label %.sink.split [
    i32 0, label %16
    i32 -43, label %22
  ]

16:                                               ; preds = %11
  %17 = load ptr, ptr getelementptr inbounds nuw (i8, ptr @prte_iof, i64 8), align 8, !tbaa !22
  %18 = getelementptr inbounds nuw i8, ptr %1, i64 24
  %19 = load i32, ptr %18, align 4, !tbaa !15
  %20 = tail call i32 %17(ptr noundef %0, i16 noundef zeroext 4, i32 noundef %19) #6
  switch i32 %20, label %.sink.split [
    i32 0, label %22
    i32 -43, label %22
  ]

.sink.split:                                      ; preds = %16, %11, %6
  %.sink28 = phi i32 [ %10, %6 ], [ %15, %11 ], [ %20, %16 ]
  %.sink27 = phi i32 [ 239, %6 ], [ 247, %11 ], [ 253, %16 ]
  %21 = tail call ptr @prte_strerror(i32 noundef %.sink28) #6
  tail call void (i32, ptr, ...) @pmix_output(i32 noundef 0, ptr noundef nonnull @.str.3, ptr noundef %21, ptr noundef nonnull @.str.1, i32 noundef %.sink27) #6
  br label %22

22:                                               ; preds = %.sink.split, %16, %16, %11, %6
  %.0 = phi i32 [ %10, %6 ], [ %15, %11 ], [ %20, %16 ], [ %20, %16 ], [ %.sink28, %.sink.split ]
  ret i32 %.0
}